target datalayout = "e-m:e-p270:32:32-p271:32:32-p272:64:64-i64:64-i128:128-f80:128-n8:16:32:64-S128"
target triple = "x86_64-pc-linux-gnu"

%"class.std::basic_ios" = type { %"class.std::ios_base", ptr, i8, i8, ptr, ptr, ptr, ptr }
%"class.std::ios_base" = type { ptr, i64, i64, i32, i32, i32, ptr, %"struct.std::ios_base::_Words", [8 x %"struct.std::ios_base::_Words"], i32, ptr, %"class.std::locale" }
%"struct.std::ios_base::_Words" = type { ptr, i64 }
%"class.std::locale" = type { ptr }
%"class.std::__cxx11::basic_string" = type { %"struct.std::__cxx11::basic_string<char>::_Alloc_hider", i64, %union.anon }
%"struct.std::__cxx11::basic_string<char>::_Alloc_hider" = type { ptr }
%union.anon = type { i64, [8 x i8] }
%class.Logger = type { i32, ptr }
%"class.std::allocator" = type { i8 }
%"class.std::__cxx11::basic_ostringstream" = type { %"class.std::basic_ostream.base", %"class.std::__cxx11::basic_stringbuf", %"class.std::basic_ios" }
%"class.std::basic_ostream.base" = type { ptr }
%"class.std::__cxx11::basic_stringbuf" = type { %"class.std::basic_streambuf", i32, %"class.std::__cxx11::basic_string" }
%"class.std::basic_streambuf" = type { ptr, ptr, ptr, ptr, ptr, ptr, ptr, %"class.std::locale" }
%"class.tstrings::any" = type { %"class.std::__cxx11::basic_ostringstream" }
%"class.Logger::ScopeTracer" = type <{ ptr, i32, [4 x i8], %"class.std::__cxx11::basic_string", i32, [4 x i8], %"class.std::__cxx11::basic_string", %"class.std::__cxx11::basic_string", i8, [7 x i8] }>

@.str.2 = private unnamed_addr constant [10 x i8] c"Entering \00", align 1

; Function Attrs: mustprogress uwtable
define linkonce_odr hidden void @_ZNK8tstrings3any4tstrB5cxx11Ev(ptr dead_on_unwind noalias writable sret(%"class.std::__cxx11::basic_string") align 8 %0, ptr noundef nonnull align 8 dereferenceable(376) %1) #5 comdat align 2 {
  %3 = alloca ptr, align 8
  %4 = alloca ptr, align 8
  store ptr %0, ptr %3, align 8
  store ptr %1, ptr %4, align 8
  %5 = load ptr, ptr %4, align 8
  %6 = getelementptr inbounds %"class.tstrings::any", ptr %5, i32 0, i32 0
  call void @_ZNKSt7__cxx1119basic_ostringstreamIcSt11char_traitsIcESaIcEE3strEv(ptr dead_on_unwind writable sret(%"class.std::__cxx11::basic_string") align 8 %0, ptr noundef nonnull align 8 dereferenceable(112) %6)
  ret void
}

; Function Attrs: mustprogress uwtable
define linkonce_odr hidden void @_ZN8tstrings8fromUtf8ERKNSt7__cxx1112basic_stringIcSt11char_traitsIcESaIcEEE(ptr dead_on_unwind noalias writable sret(%"class.std::__cxx11::basic_string") align 8 %0, ptr noundef nonnull align 8 dereferenceable(32) %1) #5 comdat {
  %3 = alloca ptr, align 8
  %4 = alloca ptr, align 8
  store ptr %0, ptr %3, align 8
  store ptr %1, ptr %4, align 8
  %5 = load ptr, ptr %4, align 8
  call void @_ZNSt7__cxx1112basic_stringIcSt11char_traitsIcESaIcEEC1ERKS4_(ptr noundef nonnull align 8 dereferenceable(32) %0, ptr noundef nonnull align 8 dereferenceable(32) %5)
  ret void
}

; Function Attrs: mustprogress nounwind uwtable
define linkonce_odr hidden void @_ZN8tstrings3anyD2Ev(ptr noundef nonnull align 8 dereferenceable(376) %0) unnamed_addr #4 comdat align 2 {
  %2 = alloca ptr, align 8
  store ptr %0, ptr %2, align 8
  %3 = load ptr, ptr %2, align 8
  %4 = getelementptr inbounds %"class.tstrings::any", ptr %3, i32 0, i32 0
  call void @_ZNSt7__cxx1119basic_ostringstreamIcSt11char_traitsIcESaIcEED1Ev(ptr noundef nonnull align 8 dereferenceable(112) %4) #3
  ret void
}

; Function Attrs: mustprogress uwtable
define linkonce_odr hidden void @_ZNK6Logger3logENS_8LogLevelEPKciS2_RKN8tstrings3anyE(ptr noundef nonnull align 8 dereferenceable(16) %0, i32 noundef %1, ptr noundef %2, i32 noundef %3, ptr noundef %4, ptr noundef nonnull align 8 dereferenceable(376) %5) #5 comdat align 2 personality ptr @__gxx_personality_v0 {
  %7 = alloca ptr, align 8
  %8 = alloca i32, align 4
  %9 = alloca ptr, align 8
  %10 = alloca i32, align 4
  %11 = alloca ptr, align 8
  %12 = alloca ptr, align 8
  %13 = alloca %"class.std::__cxx11::basic_string", align 8
  %14 = alloca ptr, align 8
  %15 = alloca i32, align 4
  store ptr %0, ptr %7, align 8
  store i32 %1, ptr %8, align 4
  store ptr %2, ptr %9, align 8
  store i32 %3, ptr %10, align 4
  store ptr %4, ptr %11, align 8
  store ptr %5, ptr %12, align 8
  %16 = load ptr, ptr %7, align 8
  %17 = load i32, ptr %8, align 4
  %18 = load ptr, ptr %9, align 8
  %19 = load i32, ptr %10, align 4
  %20 = load ptr, ptr %11, align 8
  %21 = load ptr, ptr %12, align 8
  call void @_ZNK8tstrings3any4tstrB5cxx11Ev(ptr dead_on_unwind writable sret(%"class.std::__cxx11::basic_string") align 8 %13, ptr noundef nonnull align 8 dereferenceable(376) %21)
  invoke void @_ZNK6Logger3logENS_8LogLevelEPKciS2_RKNSt7__cxx1112basic_stringIcSt11char_traitsIcESaIcEEE(ptr noundef nonnull align 8 dereferenceable(16) %16, i32 noundef %17, ptr noundef %18, i32 noundef %19, ptr noundef %20, ptr noundef nonnull align 8 dereferenceable(32) %13)
          to label %22 unwind label %23

22:                                               ; preds = %6
  call void @_ZNSt7__cxx1112basic_stringIcSt11char_traitsIcESaIcEED1Ev(ptr noundef nonnull align 8 dereferenceable(32) %13) #3
  ret void

23:                                               ; preds = %6
  %24 = landingpad { ptr, i32 }
          cleanup
  %25 = extractvalue { ptr, i32 } %24, 0
  store ptr %25, ptr %14, align 8
  %26 = extractvalue { ptr, i32 } %24, 1
  store i32 %26, ptr %15, align 4
  call void @_ZNSt7__cxx1112basic_stringIcSt11char_traitsIcESaIcEED1Ev(ptr noundef nonnull align 8 dereferenceable(32) %13) #3
  br label %27

27:                                               ; preds = %23
  %28 = load ptr, ptr %14, align 8
  %29 = load i32, ptr %15, align 4
  %30 = insertvalue { ptr, i32 } poison, ptr %28, 0
  %31 = insertvalue { ptr, i32 } %30, i32 %29, 1
  resume { ptr, i32 } %31
}

; Function Attrs: mustprogress uwtable
define linkonce_odr hidden noundef nonnull align 8 dereferenceable(376) ptr @_ZN8tstrings3anylsERKNSt7__cxx1112basic_stringIcSt11char_traitsIcESaIcEEE(ptr noundef nonnull align 8 dereferenceable(376) %0, ptr noundef nonnull align 8 dereferenceable(32) %1) #5 comdat align 2 personality ptr @__gxx_personality_v0 {
  %3 = alloca ptr, align 8
  %4 = alloca ptr, align 8
  %5 = alloca %"class.std::__cxx11::basic_string", align 8
  %6 = alloca ptr, align 8
  %7 = alloca i32, align 4
  store ptr %0, ptr %3, align 8
  store ptr %1, ptr %4, align 8
  %8 = load ptr, ptr %3, align 8
  %9 = getelementptr inbounds %"class.tstrings::any", ptr %8, i32 0, i32 0
  %10 = load ptr, ptr %4, align 8
  call void @_ZN8tstrings8fromUtf8ERKNSt7__cxx1112basic_stringIcSt11char_traitsIcESaIcEEE(ptr dead_on_unwind writable sret(%"class.std::__cxx11::basic_string") align 8 %5, ptr noundef nonnull align 8 dereferenceable(32) %10)
  %11 = invoke noundef nonnull align 8 dereferenceable(8) ptr @_ZStlsIcSt11char_traitsIcESaIcEERSt13basic_ostreamIT_T0_ES7_RKNSt7__cxx1112basic_stringIS4_S5_T1_EE(ptr noundef nonnull align 8 dereferenceable(8) %9, ptr noundef nonnull align 8 dereferenceable(32) %5)
          to label %12 unwind label %13

12:                                               ; preds = %2
  call void @_ZNSt7__cxx1112basic_stringIcSt11char_traitsIcESaIcEED1Ev(ptr noundef nonnull align 8 dereferenceable(32) %5) #3
  ret ptr %8

13:                                               ; preds = %2
  %14 = landingpad { ptr, i32 }
          cleanup
  %15 = extractvalue { ptr, i32 } %14, 0
  store ptr %15, ptr %6, align 8
  %16 = extractvalue { ptr, i32 } %14, 1
  store i32 %16, ptr %7, align 4
  call void @_ZNSt7__cxx1112basic_stringIcSt11char_traitsIcESaIcEED1Ev(ptr noundef nonnull align 8 dereferenceable(32) %5) #3
  br label %17

17:                                               ; preds = %13
  %18 = load ptr, ptr %6, align 8
  %19 = load i32, ptr %7, align 4
  %20 = insertvalue { ptr, i32 } poison, ptr %18, 0
  %21 = insertvalue { ptr, i32 } %20, i32 %19, 1
  resume { ptr, i32 } %21
}

; Function Attrs: mustprogress uwtable
define linkonce_odr hidden noundef nonnull align 8 dereferenceable(376) ptr @_ZN8tstrings3anylsIPKcEERS0_T_(ptr noundef nonnull align 8 dereferenceable(376) %0, ptr noundef %1) #5 comdat align 2 {
  %3 = alloca ptr, align 8
  %4 = alloca ptr, align 8
  store ptr %0, ptr %3, align 8
  store ptr %1, ptr %4, align 8
  %5 = load ptr, ptr %3, align 8
  %6 = getelementptr inbounds %"class.tstrings::any", ptr %5, i32 0, i32 0
  %7 = load ptr, ptr %4, align 8
  %8 = call noundef nonnull align 8 dereferenceable(8) ptr @_ZStlsISt11char_traitsIcEERSt13basic_ostreamIcT_ES5_PKc(ptr noundef nonnull align 8 dereferenceable(8) %6, ptr noundef %7)
  ret ptr %5
}

; Function Attrs: mustprogress uwtable
define linkonce_odr hidden void @_ZN8tstrings3anyC2Ev(ptr noundef nonnull align 8 dereferenceable(376) %0) unnamed_addr #5 comdat align 2 {
  %2 = alloca ptr, align 8
  store ptr %0, ptr %2, align 8
  %3 = load ptr, ptr %2, align 8
  %4 = getelementptr inbounds %"class.tstrings::any", ptr %3, i32 0, i32 0
  call void @_ZNSt7__cxx1119basic_ostringstreamIcSt11char_traitsIcESaIcEEC1Ev(ptr noundef nonnull align 8 dereferenceable(112) %4)
  ret void
}

; Function Attrs: mustprogress nounwind uwtable
define hidden noundef zeroext i1 @_ZNK6Logger10isLoggableENS_8LogLevelE(ptr noundef nonnull align 8 dereferenceable(16) %0, i32 noundef %1) #4 align 2 {
  %3 = alloca ptr, align 8
  %4 = alloca i32, align 4
  store ptr %0, ptr %3, align 8
  store i32 %1, ptr %4, align 4
  %5 = load ptr, ptr %3, align 8
  %6 = load i32, ptr %4, align 4
  %7 = getelementptr inbounds %class.Logger, ptr %5, i32 0, i32 0
  %8 = load i32, ptr %7, align 8
  %9 = icmp sge i32 %6, %8
  ret i1 %9
}

; Function Attrs: mustprogress uwtable
define hidden void @_ZN6Logger11ScopeTracerC2ERS_NS_8LogLevelEPKciS4_RKNSt7__cxx1112basic_stringIcSt11char_traitsIcESaIcEEE(ptr noundef nonnull align 8 dereferenceable(121) %0, ptr noundef nonnull align 8 dereferenceable(16) %1, i32 noundef %2, ptr noundef %3, i32 noundef %4, ptr noundef %5, ptr noundef nonnull align 8 dereferenceable(32) %6) unnamed_addr #5 align 2 personality ptr @__gxx_personality_v0 {
  %8 = alloca ptr, align 8
  %9 = alloca ptr, align 8
  %10 = alloca i32, align 4
  %11 = alloca ptr, align 8
  %12 = alloca i32, align 4
  %13 = alloca ptr, align 8
  %14 = alloca ptr, align 8
  %15 = alloca %"class.std::allocator", align 1
  %16 = alloca ptr, align 8
  %17 = alloca i32, align 4
  %18 = alloca %"class.std::allocator", align 1
  %19 = alloca %"class.tstrings::any", align 8
  store ptr %0, ptr %8, align 8
  store ptr %1, ptr %9, align 8
  store i32 %2, ptr %10, align 4
  store ptr %3, ptr %11, align 8
  store i32 %4, ptr %12, align 4
  store ptr %5, ptr %13, align 8
  store ptr %6, ptr %14, align 8
  %20 = load ptr, ptr %8, align 8
  %21 = getelementptr inbounds %"class.Logger::ScopeTracer", ptr %20, i32 0, i32 0
  %22 = load ptr, ptr %9, align 8
  store ptr %22, ptr %21, align 8
  %23 = getelementptr inbounds %"class.Logger::ScopeTracer", ptr %20, i32 0, i32 1
  %24 = load i32, ptr %10, align 4
  store i32 %24, ptr %23, align 8
  %25 = getelementptr inbounds %"class.Logger::ScopeTracer", ptr %20, i32 0, i32 3
  %26 = load ptr, ptr %11, align 8
  call void @_ZNSaIcEC1Ev(ptr noundef nonnull align 1 dereferenceable(1) %15) #3
  invoke void @_ZNSt7__cxx1112basic_stringIcSt11char_traitsIcESaIcEEC1EPKcRKS3_(ptr noundef nonnull align 8 dereferenceable(32) %25, ptr noundef %26, ptr noundef nonnull align 1 dereferenceable(1) %15)
          to label %27 unwind label %62

27:                                               ; preds = %7
  call void @_ZNSaIcED1Ev(ptr noundef nonnull align 1 dereferenceable(1) %15) #3
  %28 = getelementptr inbounds %"class.Logger::ScopeTracer", ptr %20, i32 0, i32 4
  %29 = load i32, ptr %12, align 4
  store i32 %29, ptr %28, align 8
  %30 = getelementptr inbounds %"class.Logger::ScopeTracer", ptr %20, i32 0, i32 6
  %31 = load ptr, ptr %13, align 8
  call void @_ZNSaIcEC1Ev(ptr noundef nonnull align 1 dereferenceable(1) %18) #3
  invoke void @_ZNSt7__cxx1112basic_stringIcSt11char_traitsIcESaIcEEC1EPKcRKS3_(ptr noundef nonnull align 8 dereferenceable(32) %30, ptr noundef %31, ptr noundef nonnull align 1 dereferenceable(1) %18)
          to label %32 unwind label %66

32:                                               ; preds = %27
  call void @_ZNSaIcED1Ev(ptr noundef nonnull align 1 dereferenceable(1) %18) #3
  %33 = getelementptr inbounds %"class.Logger::ScopeTracer", ptr %20, i32 0, i32 7
  %34 = load ptr, ptr %14, align 8
  invoke void @_ZNSt7__cxx1112basic_stringIcSt11char_traitsIcESaIcEEC1ERKS4_(ptr noundef nonnull align 8 dereferenceable(32) %33, ptr noundef nonnull align 8 dereferenceable(32) %34)
          to label %35 unwind label %70

35:                                               ; preds = %32
  %36 = getelementptr inbounds %"class.Logger::ScopeTracer", ptr %20, i32 0, i32 8
  %37 = load ptr, ptr %9, align 8
  %38 = load i32, ptr %10, align 4
  %39 = call noundef zeroext i1 @_ZNK6Logger10isLoggableENS_8LogLevelE(ptr noundef nonnull align 8 dereferenceable(16) %37, i32 noundef %38)
  %40 = zext i1 %39 to i8
  store i8 %40, ptr %36, align 8
  %41 = getelementptr inbounds %"class.Logger::ScopeTracer", ptr %20, i32 0, i32 8
  %42 = load i8, ptr %41, align 8
  %43 = trunc i8 %42 to i1
  br i1 %43, label %44, label %82

44:                                               ; preds = %35
  %45 = getelementptr inbounds %"class.Logger::ScopeTracer", ptr %20, i32 0, i32 0
  %46 = load ptr, ptr %45, align 8
  %47 = getelementptr inbounds %"class.Logger::ScopeTracer", ptr %20, i32 0, i32 1
  %48 = load i32, ptr %47, align 8
  %49 = getelementptr inbounds %"class.Logger::ScopeTracer", ptr %20, i32 0, i32 3
  %50 = call noundef ptr @_ZNKSt7__cxx1112basic_stringIcSt11char_traitsIcESaIcEE5c_strEv(ptr noundef nonnull align 8 dereferenceable(32) %49) #3
  %51 = getelementptr inbounds %"class.Logger::ScopeTracer", ptr %20, i32 0, i32 4
  %52 = load i32, ptr %51, align 8
  %53 = getelementptr inbounds %"class.Logger::ScopeTracer", ptr %20, i32 0, i32 6
  %54 = call noundef ptr @_ZNKSt7__cxx1112basic_stringIcSt11char_traitsIcESaIcEE5c_strEv(ptr noundef nonnull align 8 dereferenceable(32) %53) #3
  invoke void @_ZN8tstrings3anyC2Ev(ptr noundef nonnull align 8 dereferenceable(376) %19)
          to label %55 unwind label %74

55:                                               ; preds = %44
  %56 = invoke noundef nonnull align 8 dereferenceable(376) ptr @_ZN8tstrings3anylsIPKcEERS0_T_(ptr noundef nonnull align 8 dereferenceable(376) %19, ptr noundef @.str.2)
          to label %57 unwind label %78

57:                                               ; preds = %55
  %58 = getelementptr inbounds %"class.Logger::ScopeTracer", ptr %20, i32 0, i32 7
  %59 = invoke noundef nonnull align 8 dereferenceable(376) ptr @_ZN8tstrings3anylsERKNSt7__cxx1112basic_stringIcSt11char_traitsIcESaIcEEE(ptr noundef nonnull align 8 dereferenceable(376) %56, ptr noundef nonnull align 8 dereferenceable(32) %58)
          to label %60 unwind label %78

60:                                               ; preds = %57
  invoke void @_ZNK6Logger3logENS_8LogLevelEPKciS2_RKN8tstrings3anyE(ptr noundef nonnull align 8 dereferenceable(16) %46, i32 noundef %48, ptr noundef %50, i32 noundef %52, ptr noundef %54, ptr noundef nonnull align 8 dereferenceable(376) %59)
          to label %61 unwind label %78

61:                                               ; preds = %60
  call void @_ZN8tstrings3anyD2Ev(ptr noundef nonnull align 8 dereferenceable(376) %19) #3
  br label %82

62:                                               ; preds = %7
  %63 = landingpad { ptr, i32 }
          cleanup
  %64 = extractvalue { ptr, i32 } %63, 0
  store ptr %64, ptr %16, align 8
  %65 = extractvalue { ptr, i32 } %63, 1
  store i32 %65, ptr %17, align 4
  call void @_ZNSaIcED1Ev(ptr noundef nonnull align 1 dereferenceable(1) %15) #3
  br label %86

66:                                               ; preds = %27
  %67 = landingpad { ptr, i32 }
          cleanup
  %68 = extractvalue { ptr, i32 } %67, 0
  store ptr %68, ptr %16, align 8
  %69 = extractvalue { ptr, i32 } %67, 1
  store i32 %69, ptr %17, align 4
  call void @_ZNSaIcED1Ev(ptr noundef nonnull align 1 dereferenceable(1) %18) #3
  br label %85

70:                                               ; preds = %32
  %71 = landingpad { ptr, i32 }
          cleanup
  %72 = extractvalue { ptr, i32 } %71, 0
  store ptr %72, ptr %16, align 8
  %73 = extractvalue { ptr, i32 } %71, 1
  store i32 %73, ptr %17, align 4
  br label %84

74:                                               ; preds = %44
  %75 = landingpad { ptr, i32 }
          cleanup
  %76 = extractvalue { ptr, i32 } %75, 0
  store ptr %76, ptr %16, align 8
  %77 = extractvalue { ptr, i32 } %75, 1
  store i32 %77, ptr %17, align 4
  br label %83

78:                                               ; preds = %60, %57, %55
  %79 = landingpad { ptr, i32 }
          cleanup
  %80 = extractvalue { ptr, i32 } %79, 0
  store ptr %80, ptr %16, align 8
  %81 = extractvalue { ptr, i32 } %79, 1
  store i32 %81, ptr %17, align 4
  call void @_ZN8tstrings3anyD2Ev(ptr noundef nonnull align 8 dereferenceable(376) %19) #3
  br label %83

82:                                               ; preds = %61, %35
  ret void

83:                                               ; preds = %78, %74
  call void @_ZNSt7__cxx1112basic_stringIcSt11char_traitsIcESaIcEED1Ev(ptr noundef nonnull align 8 dereferenceable(32) %33) #3
  br label %84

84:                                               ; preds = %83, %70
  call void @_ZNSt7__cxx1112basic_stringIcSt11char_traitsIcESaIcEED1Ev(ptr noundef nonnull align 8 dereferenceable(32) %30) #3
  br label %85

85:                                               ; preds = %84, %66
  call void @_ZNSt7__cxx1112basic_stringIcSt11char_traitsIcESaIcEED1Ev(ptr noundef nonnull align 8 dereferenceable(32) %25) #3
  br label %86

86:                                               ; preds = %85, %62
  %87 = load ptr, ptr %16, align 8
  %88 = load i32, ptr %17, align 4
  %89 = insertvalue { ptr, i32 } poison, ptr %87, 0
  %90 = insertvalue { ptr, i32 } %89, i32 %88, 1
  resume { ptr, i32 } %90
}