; Function Attrs: mustprogress uwtable
define hidden void @_ZN6Logger11ScopeTracerC2ERS_NS_8LogLevelEPKciS4_RKNSt7__cxx1112basic_stringIcSt11char_traitsIcESaIcEEE(ptr noundef nonnull align 8 dereferenceable(121) %0, ptr noundef nonnull align 8 dereferenceable(16) %1, i32 noundef %2, ptr noundef %3, i32 noundef %4, ptr noundef %5, ptr noundef nonnull align 8 dereferenceable(32) %6) unnamed_addr #4 align 2 personality ptr @__gxx_personality_v0 {
  %8 = alloca %"class.std::__cxx11::basic_string", align 8
  %9 = alloca %"class.std::__cxx11::basic_string", align 8
  %10 = alloca %"class.std::allocator", align 1
  %11 = alloca %"class.std::allocator", align 1
  %12 = alloca %"class.tstrings::any", align 8
  store ptr %1, ptr %0, align 8
  %13 = getelementptr inbounds i8, ptr %0, i64 8
  store i32 %2, ptr %13, align 8
  %14 = getelementptr inbounds i8, ptr %0, i64 16
  call void @_ZNSaIcEC1Ev(ptr noundef nonnull align 1 dereferenceable(1) %10) #12
  invoke void @_ZNSt7__cxx1112basic_stringIcSt11char_traitsIcESaIcEEC1EPKcRKS3_(ptr noundef nonnull align 8 dereferenceable(32) %14, ptr noundef %3, ptr noundef nonnull align 1 dereferenceable(1) %10)
          to label %15 unwind label %39

15:                                               ; preds = %7
  call void @_ZNSaIcED1Ev(ptr noundef nonnull align 1 dereferenceable(1) %10) #12
  %16 = getelementptr inbounds i8, ptr %0, i64 48
  store i32 %4, ptr %16, align 8
  %17 = getelementptr inbounds i8, ptr %0, i64 56
  call void @_ZNSaIcEC1Ev(ptr noundef nonnull align 1 dereferenceable(1) %11) #12
  invoke void @_ZNSt7__cxx1112basic_stringIcSt11char_traitsIcESaIcEEC1EPKcRKS3_(ptr noundef nonnull align 8 dereferenceable(32) %17, ptr noundef %5, ptr noundef nonnull align 1 dereferenceable(1) %11)
          to label %18 unwind label %41

18:                                               ; preds = %15
  call void @_ZNSaIcED1Ev(ptr noundef nonnull align 1 dereferenceable(1) %11) #12
  %19 = getelementptr inbounds i8, ptr %0, i64 88
  invoke void @_ZNSt7__cxx1112basic_stringIcSt11char_traitsIcESaIcEEC1ERKS4_(ptr noundef nonnull align 8 dereferenceable(32) %19, ptr noundef nonnull align 8 dereferenceable(32) %6)
          to label %20 unwind label %43

20:                                               ; preds = %18
  %21 = getelementptr inbounds i8, ptr %0, i64 120
  %22 = load i32, ptr %1, align 8
  %23 = icmp sle i32 %22, %2
  %24 = zext i1 %23 to i8
  store i8 %24, ptr %21, align 8
  br i1 %23, label %25, label %49

25:                                               ; preds = %20
  %26 = load ptr, ptr %0, align 8
  %27 = load i32, ptr %13, align 8
  %28 = call noundef ptr @_ZNKSt7__cxx1112basic_stringIcSt11char_traitsIcESaIcEE5c_strEv(ptr noundef nonnull align 8 dereferenceable(32) %14) #12
  %29 = load i32, ptr %16, align 8
  %30 = call noundef ptr @_ZNKSt7__cxx1112basic_stringIcSt11char_traitsIcESaIcEE5c_strEv(ptr noundef nonnull align 8 dereferenceable(32) %17) #12
  invoke void @_ZNSt7__cxx1119basic_ostringstreamIcSt11char_traitsIcESaIcEEC1Ev(ptr noundef nonnull align 8 dereferenceable(112) %12)
          to label %_ZN8tstrings3anyC2Ev.exit unwind label %45

_ZN8tstrings3anyC2Ev.exit:                        ; preds = %25
  %31 = invoke noundef nonnull align 8 dereferenceable(8) ptr @_ZStlsISt11char_traitsIcEERSt13basic_ostreamIcT_ES5_PKc(ptr noundef nonnull align 8 dereferenceable(8) %12, ptr noundef nonnull @.str.2)
          to label %_ZN8tstrings3anylsIPKcEERS0_T_.exit unwind label %47

_ZN8tstrings3anylsIPKcEERS0_T_.exit:              ; preds = %_ZN8tstrings3anyC2Ev.exit
  call void @llvm.lifetime.start.p0(i64 32, ptr nonnull %9)
  invoke void @_ZNSt7__cxx1112basic_stringIcSt11char_traitsIcESaIcEEC1ERKS4_(ptr noundef nonnull align 8 dereferenceable(32) %9, ptr noundef nonnull align 8 dereferenceable(32) %19)
          to label %.noexc unwind label %47

.noexc:                                           ; preds = %_ZN8tstrings3anylsIPKcEERS0_T_.exit
  %32 = invoke noundef nonnull align 8 dereferenceable(8) ptr @_ZStlsIcSt11char_traitsIcESaIcEERSt13basic_ostreamIT_T0_ES7_RKNSt7__cxx1112basic_stringIS4_S5_T1_EE(ptr noundef nonnull align 8 dereferenceable(8) %12, ptr noundef nonnull align 8 dereferenceable(32) %9)
          to label %35 unwind label %33

33:                                               ; preds = %.noexc
  %34 = landingpad { ptr, i32 }
          cleanup
  call void @_ZNSt7__cxx1112basic_stringIcSt11char_traitsIcESaIcEED1Ev(ptr noundef nonnull align 8 dereferenceable(32) %9) #12
  br label %.body

35:                                               ; preds = %.noexc
  call void @_ZNSt7__cxx1112basic_stringIcSt11char_traitsIcESaIcEED1Ev(ptr noundef nonnull align 8 dereferenceable(32) %9) #12
  call void @llvm.lifetime.end.p0(i64 32, ptr nonnull %9)
  call void @llvm.lifetime.start.p0(i64 32, ptr nonnull %8)
  invoke void @_ZNKSt7__cxx1119basic_ostringstreamIcSt11char_traitsIcESaIcEE3strEv(ptr dead_on_unwind nonnull writable sret(%"class.std::__cxx11::basic_string") align 8 %8, ptr noundef nonnull align 8 dereferenceable(112) %12)
          to label %.noexc18 unwind label %47

.noexc18:                                         ; preds = %35
  invoke void @_ZNK6Logger3logENS_8LogLevelEPKciS2_RKNSt7__cxx1112basic_stringIcSt11char_traitsIcESaIcEEE(ptr noundef nonnull align 8 dereferenceable(16) %26, i32 noundef %27, ptr noundef %28, i32 noundef %29, ptr noundef %30, ptr noundef nonnull align 8 dereferenceable(32) %8)
          to label %38 unwind label %36

36:                                               ; preds = %.noexc18
  %37 = landingpad { ptr, i32 }
          cleanup
  call void @_ZNSt7__cxx1112basic_stringIcSt11char_traitsIcESaIcEED1Ev(ptr noundef nonnull align 8 dereferenceable(32) %8) #12
  br label %.body

38:                                               ; preds = %.noexc18
  call void @_ZNSt7__cxx1112basic_stringIcSt11char_traitsIcESaIcEED1Ev(ptr noundef nonnull align 8 dereferenceable(32) %8) #12
  call void @llvm.lifetime.end.p0(i64 32, ptr nonnull %8)
  call void @_ZNSt7__cxx1119basic_ostringstreamIcSt11char_traitsIcESaIcEED1Ev(ptr noundef nonnull align 8 dereferenceable(112) %12) #12
  br label %49

39:                                               ; preds = %7
  %40 = landingpad { ptr, i32 }
          cleanup
  call void @_ZNSaIcED1Ev(ptr noundef nonnull align 1 dereferenceable(1) %10) #12
  br label %53

41:                                               ; preds = %15
  %42 = landingpad { ptr, i32 }
          cleanup
  call void @_ZNSaIcED1Ev(ptr noundef nonnull align 1 dereferenceable(1) %11) #12
  br label %52

43:                                               ; preds = %18
  %44 = landingpad { ptr, i32 }
          cleanup
  br label %51

45:                                               ; preds = %25
  %46 = landingpad { ptr, i32 }
          cleanup
  br label %50

47:                                               ; preds = %35, %_ZN8tstrings3anylsIPKcEERS0_T_.exit, %_ZN8tstrings3anyC2Ev.exit
  %48 = landingpad { ptr, i32 }
          cleanup
  br label %.body

.body:                                            ; preds = %47, %36, %33
  %eh.lpad-body = phi { ptr, i32 } [ %34, %33 ], [ %48, %47 ], [ %37, %36 ]
  call void @_ZNSt7__cxx1119basic_ostringstreamIcSt11char_traitsIcESaIcEED1Ev(ptr noundef nonnull align 8 dereferenceable(112) %12) #12
  br label %50

49:                                               ; preds = %38, %20
  ret void

50:                                               ; preds = %.body, %45
  %.pn = phi { ptr, i32 } [ %eh.lpad-body, %.body ], [ %46, %45 ]
  call void @_ZNSt7__cxx1112basic_stringIcSt11char_traitsIcESaIcEED1Ev(ptr noundef nonnull align 8 dereferenceable(32) %19) #12
  br label %51

51:                                               ; preds = %50, %43
  %.pn.pn = phi { ptr, i32 } [ %.pn, %50 ], [ %44, %43 ]
  call void @_ZNSt7__cxx1112basic_stringIcSt11char_traitsIcESaIcEED1Ev(ptr noundef nonnull align 8 dereferenceable(32) %17) #12
  br label %52

52:                                               ; preds = %51, %41
  %.pn.pn.pn = phi { ptr, i32 } [ %.pn.pn, %51 ], [ %42, %41 ]
  call void @_ZNSt7__cxx1112basic_stringIcSt11char_traitsIcESaIcEED1Ev(ptr noundef nonnull align 8 dereferenceable(32) %14) #12
  br label %53

53:                                               ; preds = %52, %39
  %.pn.pn.pn.pn = phi { ptr, i32 } [ %.pn.pn.pn, %52 ], [ %40, %39 ]
  resume { ptr, i32 } %.pn.pn.pn.pn
}